target datalayout = "e-m:e-p270:32:32-p271:32:32-p272:64:64-i64:64-i128:128-f80:128-n8:16:32:64-S128"
target triple = "x86_64-pc-linux-gnu"

; Function Attrs: nounwind uwtable
define double @luby2(double noundef %0, i32 noundef %1) #0 {
  %3 = alloca double, align 8
  %4 = alloca i32, align 4
  %5 = alloca i32, align 4
  %6 = alloca i32, align 4
  store double %0, ptr %3, align 8
  store i32 %1, ptr %4, align 4
  store i32 1, ptr %5, align 4
  store i32 0, ptr %6, align 4
  br label %7

7:                                                ; preds = %13, %2
  %8 = load i32, ptr %5, align 4
  %9 = load i32, ptr %4, align 4
  %10 = add nsw i32 %9, 1
  %11 = icmp slt i32 %8, %10
  br i1 %11, label %12, label %19

12:                                               ; preds = %7
  br label %13

13:                                               ; preds = %12
  %14 = load i32, ptr %6, align 4
  %15 = add nsw i32 %14, 1
  store i32 %15, ptr %6, align 4
  %16 = load i32, ptr %5, align 4
  %17 = mul nsw i32 2, %16
  %18 = add nsw i32 %17, 1
  store i32 %18, ptr %5, align 4
  br label %7, !llvm.loop !22

19:                                               ; preds = %7
  br label %20

20:                                               ; preds = %25, %19
  %21 = load i32, ptr %5, align 4
  %22 = sub nsw i32 %21, 1
  %23 = load i32, ptr %4, align 4
  %24 = icmp ne i32 %22, %23
  br i1 %24, label %25, label %34

25:                                               ; preds = %20
  %26 = load i32, ptr %5, align 4
  %27 = sub nsw i32 %26, 1
  %28 = ashr i32 %27, 1
  store i32 %28, ptr %5, align 4
  %29 = load i32, ptr %6, align 4
  %30 = add nsw i32 %29, -1
  store i32 %30, ptr %6, align 4
  %31 = load i32, ptr %4, align 4
  %32 = load i32, ptr %5, align 4
  %33 = srem i32 %31, %32
  store i32 %33, ptr %4, align 4
  br label %20, !llvm.loop !23

34:                                               ; preds = %20
  %35 = load double, ptr %3, align 8
  %36 = load i32, ptr %6, align 4
  %37 = sitofp i32 %36 to double
  %38 = call double @pow(double noundef %35, double noundef %37) #14
  ret double %38
}