; Function Attrs: nofree nounwind memory(write) uwtable
define double @luby2(double noundef %0, i32 noundef %1) local_unnamed_addr #10 {
  %.not16 = icmp slt i32 %1, 1
  br i1 %.not16, label %.preheader, label %.lr.ph

.preheader:                                       ; preds = %.lr.ph, %2
  %.011.lcssa = phi i32 [ 0, %2 ], [ %4, %.lr.ph ]
  %.0.lcssa = phi i32 [ 0, %2 ], [ %3, %.lr.ph ]
  %.not1520 = icmp eq i32 %.011.lcssa, %1
  br i1 %.not1520, label %._crit_edge, label %.lr.ph23

.lr.ph:                                           ; preds = %2, %.lr.ph
  %.018 = phi i32 [ %3, %.lr.ph ], [ 0, %2 ]
  %.01117 = phi i32 [ %5, %.lr.ph ], [ 1, %2 ]
  %3 = add nuw nsw i32 %.018, 1
  %4 = shl nsw i32 %.01117, 1
  %5 = or disjoint i32 %4, 1
  %.not.not = icmp slt i32 %4, %1
  br i1 %.not.not, label %.lr.ph, label %.preheader, !llvm.loop !28

.lr.ph23:                                         ; preds = %.preheader, %.lr.ph23
  %6 = phi i32 [ %10, %.lr.ph23 ], [ %.011.lcssa, %.preheader ]
  %.122 = phi i32 [ %8, %.lr.ph23 ], [ %.0.lcssa, %.preheader ]
  %.01321 = phi i32 [ %9, %.lr.ph23 ], [ %1, %.preheader ]
  %7 = ashr i32 %6, 1
  %8 = add nsw i32 %.122, -1
  %9 = srem i32 %.01321, %7
  %10 = add nsw i32 %7, -1
  %.not15 = icmp eq i32 %10, %9
  br i1 %.not15, label %._crit_edge, label %.lr.ph23, !llvm.loop !29

._crit_edge:                                      ; preds = %.lr.ph23, %.preheader
  %.1.lcssa = phi i32 [ %.0.lcssa, %.preheader ], [ %8, %.lr.ph23 ]
  %11 = sitofp i32 %.1.lcssa to double
  %12 = tail call double @pow(double noundef %0, double noundef %11) #29
  ret double %12
}